target datalayout = "e-m:e-p270:32:32-p271:32:32-p272:64:64-i64:64-i128:128-f80:128-n8:16:32:64-S128"
target triple = "x86_64-unknown-linux-gnu"

%"class.icu_75::UObject" = type { ptr }
%"class.icu_75::UnicodeString" = type { %"class.icu_75::Replaceable", %"union.icu_75::UnicodeString::StackBufferOrFields" }
%"class.icu_75::Replaceable" = type { %"class.icu_75::UObject" }
%"union.icu_75::UnicodeString::StackBufferOrFields" = type { %struct.anon.0, [32 x i8] }
%struct.anon.0 = type { i16, i32, i32, ptr }
%union.UElement = type { ptr }

; Function Attrs: mustprogress nounwind uwtable
define linkonce_odr noundef i32 @_ZNK6icu_7513UnicodeString14getShortLengthEv(ptr noundef nonnull align 8 dereferenceable(64) %this) #0 comdat align 2 {
entry:
  %this.addr = alloca ptr, align 8
  store ptr %this, ptr %this.addr, align 8
  %this1 = load ptr, ptr %this.addr, align 8
  %fUnion = getelementptr inbounds %"class.icu_75::UnicodeString", ptr %this1, i32 0, i32 1
  %fLengthAndFlags = getelementptr inbounds %struct.anon.0, ptr %fUnion, i32 0, i32 0
  %0 = load i16, ptr %fLengthAndFlags, align 8
  %conv = sext i16 %0 to i32
  %shr = ashr i32 %conv, 5
  ret i32 %shr
}

; Function Attrs: mustprogress nounwind uwtable
define linkonce_odr noundef signext i8 @_ZNK6icu_7513UnicodeString14hasShortLengthEv(ptr noundef nonnull align 8 dereferenceable(64) %this) #0 comdat align 2 {
entry:
  %this.addr = alloca ptr, align 8
  store ptr %this, ptr %this.addr, align 8
  %this1 = load ptr, ptr %this.addr, align 8
  %fUnion = getelementptr inbounds %"class.icu_75::UnicodeString", ptr %this1, i32 0, i32 1
  %fLengthAndFlags = getelementptr inbounds %struct.anon.0, ptr %fUnion, i32 0, i32 0
  %0 = load i16, ptr %fLengthAndFlags, align 8
  %conv = sext i16 %0 to i32
  %cmp = icmp sge i32 %conv, 0
  %conv2 = zext i1 %cmp to i8
  ret i8 %conv2
}

; Function Attrs: mustprogress uwtable
define linkonce_odr noundef i32 @_ZNK6icu_7513UnicodeString6lengthEv(ptr noundef nonnull align 8 dereferenceable(64) %this) #1 comdat align 2 {
entry:
  %this.addr = alloca ptr, align 8
  store ptr %this, ptr %this.addr, align 8
  %this1 = load ptr, ptr %this.addr, align 8
  %call = call noundef signext i8 @_ZNK6icu_7513UnicodeString14hasShortLengthEv(ptr noundef nonnull align 8 dereferenceable(64) %this1)
  %tobool = icmp ne i8 %call, 0
  br i1 %tobool, label %cond.true, label %cond.false

cond.true:                                        ; preds = %entry
  %call2 = call noundef i32 @_ZNK6icu_7513UnicodeString14getShortLengthEv(ptr noundef nonnull align 8 dereferenceable(64) %this1)
  br label %cond.end

cond.false:                                       ; preds = %entry
  %fUnion = getelementptr inbounds %"class.icu_75::UnicodeString", ptr %this1, i32 0, i32 1
  %fLength = getelementptr inbounds %struct.anon.0, ptr %fUnion, i32 0, i32 1
  %0 = load i32, ptr %fLength, align 4
  br label %cond.end

cond.end:                                         ; preds = %cond.false, %cond.true
  %cond = phi i32 [ %call2, %cond.true ], [ %0, %cond.false ]
  ret i32 %cond
}

; Function Attrs: mustprogress nounwind uwtable
define linkonce_odr noundef signext i8 @_ZNK6icu_7513UnicodeString7isBogusEv(ptr noundef nonnull align 8 dereferenceable(64) %this) #0 comdat align 2 {
entry:
  %this.addr = alloca ptr, align 8
  store ptr %this, ptr %this.addr, align 8
  %this1 = load ptr, ptr %this.addr, align 8
  %fUnion = getelementptr inbounds %"class.icu_75::UnicodeString", ptr %this1, i32 0, i32 1
  %fLengthAndFlags = getelementptr inbounds %struct.anon.0, ptr %fUnion, i32 0, i32 0
  %0 = load i16, ptr %fLengthAndFlags, align 8
  %conv = sext i16 %0 to i32
  %and = and i32 %conv, 1
  %conv2 = trunc i32 %and to i8
  ret i8 %conv2
}

; Function Attrs: mustprogress uwtable
define linkonce_odr noundef zeroext i1 @_ZNK6icu_7513UnicodeStringeqERKS0_(ptr noundef nonnull align 8 dereferenceable(64) %this, ptr noundef nonnull align 8 dereferenceable(64) %text) #1 comdat align 2 {
entry:
  %retval = alloca i1, align 1
  %this.addr = alloca ptr, align 8
  %text.addr = alloca ptr, align 8
  %len = alloca i32, align 4
  %textLength = alloca i32, align 4
  store ptr %this, ptr %this.addr, align 8
  store ptr %text, ptr %text.addr, align 8
  %this1 = load ptr, ptr %this.addr, align 8
  %call = call noundef signext i8 @_ZNK6icu_7513UnicodeString7isBogusEv(ptr noundef nonnull align 8 dereferenceable(64) %this1)
  %tobool = icmp ne i8 %call, 0
  br i1 %tobool, label %if.then, label %if.else

if.then:                                          ; preds = %entry
  %0 = load ptr, ptr %text.addr, align 8
  %call2 = call noundef signext i8 @_ZNK6icu_7513UnicodeString7isBogusEv(ptr noundef nonnull align 8 dereferenceable(64) %0)
  %tobool3 = icmp ne i8 %call2, 0
  store i1 %tobool3, ptr %retval, align 1
  br label %return

if.else:                                          ; preds = %entry
  %call4 = call noundef i32 @_ZNK6icu_7513UnicodeString6lengthEv(ptr noundef nonnull align 8 dereferenceable(64) %this1)
  store i32 %call4, ptr %len, align 4
  %1 = load ptr, ptr %text.addr, align 8
  %call5 = call noundef i32 @_ZNK6icu_7513UnicodeString6lengthEv(ptr noundef nonnull align 8 dereferenceable(64) %1)
  store i32 %call5, ptr %textLength, align 4
  %2 = load ptr, ptr %text.addr, align 8
  %call6 = call noundef signext i8 @_ZNK6icu_7513UnicodeString7isBogusEv(ptr noundef nonnull align 8 dereferenceable(64) %2)
  %tobool7 = icmp ne i8 %call6, 0
  br i1 %tobool7, label %land.end, label %land.lhs.true

land.lhs.true:                                    ; preds = %if.else
  %3 = load i32, ptr %len, align 4
  %4 = load i32, ptr %textLength, align 4
  %cmp = icmp eq i32 %3, %4
  br i1 %cmp, label %land.rhs, label %land.end

land.rhs:                                         ; preds = %land.lhs.true
  %5 = load ptr, ptr %text.addr, align 8
  %6 = load i32, ptr %len, align 4
  %call8 = call noundef signext i8 @_ZNK6icu_7513UnicodeString8doEqualsERKS0_i(ptr noundef nonnull align 8 dereferenceable(64) %this1, ptr noundef nonnull align 8 dereferenceable(64) %5, i32 noundef %6)
  %tobool9 = icmp ne i8 %call8, 0
  br label %land.end

land.end:                                         ; preds = %land.rhs, %land.lhs.true, %if.else
  %7 = phi i1 [ false, %land.lhs.true ], [ false, %if.else ], [ %tobool9, %land.rhs ]
  store i1 %7, ptr %retval, align 1
  br label %return

return:                                           ; preds = %land.end, %if.then
  %8 = load i1, ptr %retval, align 1
  ret i1 %8
}

; Function Attrs: mustprogress uwtable
define internal noundef signext i8 @_ZN6icu_75L32dtitvinfHashTableValueComparatorE8UElementS0_(ptr %val1.coerce, ptr %val2.coerce) #1 {
entry:
  %val1 = alloca %union.UElement, align 8
  %val2 = alloca %union.UElement, align 8
  %pattern1 = alloca ptr, align 8
  %pattern2 = alloca ptr, align 8
  %ret = alloca i8, align 1
  %i = alloca i8, align 1
  %coerce.dive = getelementptr inbounds %union.UElement, ptr %val1, i32 0, i32 0
  store ptr %val1.coerce, ptr %coerce.dive, align 8
  %coerce.dive1 = getelementptr inbounds %union.UElement, ptr %val2, i32 0, i32 0
  store ptr %val2.coerce, ptr %coerce.dive1, align 8
  %0 = load ptr, ptr %val1, align 8
  store ptr %0, ptr %pattern1, align 8
  %1 = load ptr, ptr %val2, align 8
  store ptr %1, ptr %pattern2, align 8
  store i8 1, ptr %ret, align 1
  store i8 0, ptr %i, align 1
  br label %for.cond

for.cond:                                         ; preds = %for.inc, %entry
  %2 = load i8, ptr %i, align 1
  %conv = sext i8 %2 to i32
  %cmp = icmp slt i32 %conv, 9
  br i1 %cmp, label %land.rhs, label %land.end

land.rhs:                                         ; preds = %for.cond
  %3 = load i8, ptr %ret, align 1
  %tobool = icmp ne i8 %3, 0
  br label %land.end

land.end:                                         ; preds = %land.rhs, %for.cond
  %4 = phi i1 [ false, %for.cond ], [ %tobool, %land.rhs ]
  br i1 %4, label %for.body, label %for.end

for.body:                                         ; preds = %land.end
  %5 = load ptr, ptr %pattern1, align 8
  %6 = load i8, ptr %i, align 1
  %idxprom = sext i8 %6 to i64
  %arrayidx = getelementptr inbounds %"class.icu_75::UnicodeString", ptr %5, i64 %idxprom
  %7 = load ptr, ptr %pattern2, align 8
  %8 = load i8, ptr %i, align 1
  %idxprom2 = sext i8 %8 to i64
  %arrayidx3 = getelementptr inbounds %"class.icu_75::UnicodeString", ptr %7, i64 %idxprom2
  %call = call noundef zeroext i1 @_ZNK6icu_7513UnicodeStringeqERKS0_(ptr noundef nonnull align 8 dereferenceable(64) %arrayidx, ptr noundef nonnull align 8 dereferenceable(64) %arrayidx3)
  %conv4 = zext i1 %call to i8
  store i8 %conv4, ptr %ret, align 1
  br label %for.inc

for.inc:                                          ; preds = %for.body
  %9 = load i8, ptr %i, align 1
  %inc = add i8 %9, 1
  store i8 %inc, ptr %i, align 1
  br label %for.cond, !llvm.loop !14

for.end:                                          ; preds = %land.end
  %10 = load i8, ptr %ret, align 1
  ret i8 %10
}