; Function Attrs: mustprogress uwtable
define internal noundef signext i8 @_ZN6icu_75L32dtitvinfHashTableValueComparatorE8UElementS0_(ptr %val1.coerce, ptr %val2.coerce) #1 {
entry:
  br label %for.body

for.body:                                         ; preds = %entry, %_ZNK6icu_7513UnicodeStringeqERKS0_.exit
  %indvars.iv = phi i64 [ 0, %entry ], [ %indvars.iv.next, %_ZNK6icu_7513UnicodeStringeqERKS0_.exit ]
  %arrayidx = getelementptr inbounds %"class.icu_75::UnicodeString", ptr %val1.coerce, i64 %indvars.iv
  %arrayidx3 = getelementptr inbounds %"class.icu_75::UnicodeString", ptr %val2.coerce, i64 %indvars.iv
  %fUnion.i.i = getelementptr inbounds i8, ptr %arrayidx, i64 8
  %0 = load i16, ptr %fUnion.i.i, align 8
  %conv2.i14.i = and i16 %0, 1
  %tobool.not.i = icmp eq i16 %conv2.i14.i, 0
  br i1 %tobool.not.i, label %if.else.i, label %if.then.i

if.then.i:                                        ; preds = %for.body
  %fUnion.i5.i = getelementptr inbounds i8, ptr %arrayidx3, i64 8
  %1 = load i16, ptr %fUnion.i5.i, align 8
  %conv2.i615.i = and i16 %1, 1
  %tobool3.i = icmp ne i16 %conv2.i615.i, 0
  br label %_ZNK6icu_7513UnicodeStringeqERKS0_.exit

if.else.i:                                        ; preds = %for.body
  %cmp.i.i.i = icmp slt i16 %0, 0
  %2 = ashr i16 %0, 5
  %shr.i.i.i = sext i16 %2 to i32
  %fLength.i.i = getelementptr inbounds i8, ptr %arrayidx, i64 12
  %3 = load i32, ptr %fLength.i.i, align 4
  %cond.i.i = select i1 %cmp.i.i.i, i32 %3, i32 %shr.i.i.i
  %fUnion.i.i7.i = getelementptr inbounds i8, ptr %arrayidx3, i64 8
  %4 = load i16, ptr %fUnion.i.i7.i, align 8
  %cmp.i.i8.i = icmp slt i16 %4, 0
  %5 = ashr i16 %4, 5
  %shr.i.i9.i = sext i16 %5 to i32
  %fLength.i10.i = getelementptr inbounds i8, ptr %arrayidx3, i64 12
  %6 = load i32, ptr %fLength.i10.i, align 4
  %cond.i11.i = select i1 %cmp.i.i8.i, i32 %6, i32 %shr.i.i9.i
  %conv2.i1316.i = and i16 %4, 1
  %tobool7.not.i = icmp eq i16 %conv2.i1316.i, 0
  %cmp.i = icmp eq i32 %cond.i.i, %cond.i11.i
  %or.cond.i = and i1 %tobool7.not.i, %cmp.i
  br i1 %or.cond.i, label %land.rhs.i, label %for.end

land.rhs.i:                                       ; preds = %if.else.i
  %call8.i = tail call noundef signext i8 @_ZNK6icu_7513UnicodeString8doEqualsERKS0_i(ptr noundef nonnull align 8 dereferenceable(64) %arrayidx, ptr noundef nonnull align 8 dereferenceable(64) %arrayidx3, i32 noundef %cond.i.i)
  %tobool9.i = icmp ne i8 %call8.i, 0
  br label %_ZNK6icu_7513UnicodeStringeqERKS0_.exit

_ZNK6icu_7513UnicodeStringeqERKS0_.exit:          ; preds = %if.then.i, %land.rhs.i
  %retval.0.i = phi i1 [ %tobool3.i, %if.then.i ], [ %tobool9.i, %land.rhs.i ]
  %indvars.iv.next = add nuw nsw i64 %indvars.iv, 1
  %cmp = icmp ult i64 %indvars.iv, 8
  %7 = and i1 %retval.0.i, %cmp
  br i1 %7, label %for.body, label %for.end, !llvm.loop !12

for.end:                                          ; preds = %if.else.i, %_ZNK6icu_7513UnicodeStringeqERKS0_.exit
  %retval.0.i10 = phi i1 [ %retval.0.i, %_ZNK6icu_7513UnicodeStringeqERKS0_.exit ], [ false, %if.else.i ]
  %conv4 = zext i1 %retval.0.i10 to i8
  ret i8 %conv4
}